target datalayout = "e-m:e-p270:32:32-p271:32:32-p272:64:64-i64:64-i128:128-f80:128-n8:16:32:64-S128"
target triple = "x86_64-pc-linux-gnu"

%"struct.realclosure::mpbq_config::interval" = type { %class.mpbq, %class.mpbq, i8, i8, i8, i8, [4 x i8] }
%class.mpbq = type <{ %class.mpz, i32, [4 x i8] }>
%class.mpz = type { i32, i8, ptr }

; Function Attrs: inlinehint mustprogress nounwind uwtable
define linkonce_odr hidden void @_ZSt4swapIP8mpz_cellENSt9enable_ifIXsr6__and_ISt6__not_ISt15__is_tuple_likeIT_EESt21is_move_constructibleIS5_ESt18is_move_assignableIS5_EEE5valueEvE4typeERS5_SE_(ptr noundef nonnull align 8 dereferenceable(8) %0, ptr noundef nonnull align 8 dereferenceable(8) %1) #5 comdat {
  %3 = alloca ptr, align 8
  %4 = alloca ptr, align 8
  %5 = alloca ptr, align 8
  store ptr %0, ptr %3, align 8, !tbaa !148
  store ptr %1, ptr %4, align 8, !tbaa !148
  call void @llvm.lifetime.start.p0(i64 8, ptr %5) #3
  %6 = load ptr, ptr %3, align 8, !tbaa !148
  %7 = load ptr, ptr %6, align 8, !tbaa !150
  store ptr %7, ptr %5, align 8, !tbaa !150
  %8 = load ptr, ptr %4, align 8, !tbaa !148
  %9 = load ptr, ptr %8, align 8, !tbaa !150
  %10 = load ptr, ptr %3, align 8, !tbaa !148
  store ptr %9, ptr %10, align 8, !tbaa !150
  %11 = load ptr, ptr %5, align 8, !tbaa !150
  %12 = load ptr, ptr %4, align 8, !tbaa !148
  store ptr %11, ptr %12, align 8, !tbaa !150
  call void @llvm.lifetime.end.p0(i64 8, ptr %5) #3
  ret void
}

; Function Attrs: inlinehint mustprogress nounwind uwtable
define linkonce_odr void @_ZSt4swapIiENSt9enable_ifIXsr6__and_ISt6__not_ISt15__is_tuple_likeIT_EESt21is_move_constructibleIS3_ESt18is_move_assignableIS3_EEE5valueEvE4typeERS3_SC_(ptr noundef nonnull align 4 dereferenceable(4) %0, ptr noundef nonnull align 4 dereferenceable(4) %1) #5 comdat {
  %3 = alloca ptr, align 8
  %4 = alloca ptr, align 8
  %5 = alloca i32, align 4
  store ptr %0, ptr %3, align 8, !tbaa !120
  store ptr %1, ptr %4, align 8, !tbaa !120
  call void @llvm.lifetime.start.p0(i64 4, ptr %5) #3
  %6 = load ptr, ptr %3, align 8, !tbaa !120
  %7 = load i32, ptr %6, align 4, !tbaa !82
  store i32 %7, ptr %5, align 4, !tbaa !82
  %8 = load ptr, ptr %4, align 8, !tbaa !120
  %9 = load i32, ptr %8, align 4, !tbaa !82
  %10 = load ptr, ptr %3, align 8, !tbaa !120
  store i32 %9, ptr %10, align 4, !tbaa !82
  %11 = load i32, ptr %5, align 4, !tbaa !82
  %12 = load ptr, ptr %4, align 8, !tbaa !120
  store i32 %11, ptr %12, align 4, !tbaa !82
  call void @llvm.lifetime.end.p0(i64 4, ptr %5) #3
  ret void
}

; Function Attrs: inlinehint mustprogress nounwind uwtable
define linkonce_odr void @_ZSt4swapIjENSt9enable_ifIXsr6__and_ISt6__not_ISt15__is_tuple_likeIT_EESt21is_move_constructibleIS3_ESt18is_move_assignableIS3_EEE5valueEvE4typeERS3_SC_(ptr noundef nonnull align 4 dereferenceable(4) %0, ptr noundef nonnull align 4 dereferenceable(4) %1) #5 comdat {
  %3 = alloca ptr, align 8
  %4 = alloca ptr, align 8
  %5 = alloca i32, align 4
  store ptr %0, ptr %3, align 8, !tbaa !120
  store ptr %1, ptr %4, align 8, !tbaa !120
  call void @llvm.lifetime.start.p0(i64 4, ptr %5) #3
  %6 = load ptr, ptr %3, align 8, !tbaa !120
  %7 = load i32, ptr %6, align 4, !tbaa !82
  store i32 %7, ptr %5, align 4, !tbaa !82
  %8 = load ptr, ptr %4, align 8, !tbaa !120
  %9 = load i32, ptr %8, align 4, !tbaa !82
  %10 = load ptr, ptr %3, align 8, !tbaa !120
  store i32 %9, ptr %10, align 4, !tbaa !82
  %11 = load i32, ptr %5, align 4, !tbaa !82
  %12 = load ptr, ptr %4, align 8, !tbaa !120
  store i32 %11, ptr %12, align 4, !tbaa !82
  call void @llvm.lifetime.end.p0(i64 4, ptr %5) #3
  ret void
}

; Function Attrs: mustprogress nounwind uwtable
define linkonce_odr hidden void @_ZN3mpz4swapERS_(ptr noundef nonnull align 8 dereferenceable(16) %0, ptr noundef nonnull align 8 dereferenceable(16) %1) #4 comdat align 2 {
  %3 = alloca ptr, align 8
  %4 = alloca ptr, align 8
  %5 = alloca i32, align 4
  %6 = alloca i32, align 4
  store ptr %0, ptr %3, align 8, !tbaa !94
  store ptr %1, ptr %4, align 8, !tbaa !94
  %7 = load ptr, ptr %3, align 8
  %8 = getelementptr inbounds nuw %class.mpz, ptr %7, i32 0, i32 0
  %9 = load ptr, ptr %4, align 8, !tbaa !94
  %10 = getelementptr inbounds nuw %class.mpz, ptr %9, i32 0, i32 0
  call void @_ZSt4swapIiENSt9enable_ifIXsr6__and_ISt6__not_ISt15__is_tuple_likeIT_EESt21is_move_constructibleIS3_ESt18is_move_assignableIS3_EEE5valueEvE4typeERS3_SC_(ptr noundef nonnull align 4 dereferenceable(4) %8, ptr noundef nonnull align 4 dereferenceable(4) %10) #3
  %11 = getelementptr inbounds nuw %class.mpz, ptr %7, i32 0, i32 2
  %12 = load ptr, ptr %4, align 8, !tbaa !94
  %13 = getelementptr inbounds nuw %class.mpz, ptr %12, i32 0, i32 2
  call void @_ZSt4swapIP8mpz_cellENSt9enable_ifIXsr6__and_ISt6__not_ISt15__is_tuple_likeIT_EESt21is_move_constructibleIS5_ESt18is_move_assignableIS5_EEE5valueEvE4typeERS5_SE_(ptr noundef nonnull align 8 dereferenceable(8) %11, ptr noundef nonnull align 8 dereferenceable(8) %13) #3
  call void @llvm.lifetime.start.p0(i64 4, ptr %5) #3
  %14 = getelementptr inbounds nuw %class.mpz, ptr %7, i32 0, i32 1
  %15 = load i8, ptr %14, align 4
  %16 = lshr i8 %15, 1
  %17 = and i8 %16, 1
  %18 = zext i8 %17 to i32
  store i32 %18, ptr %5, align 4, !tbaa !82
  %19 = load ptr, ptr %4, align 8, !tbaa !94
  %20 = getelementptr inbounds nuw %class.mpz, ptr %19, i32 0, i32 1
  %21 = load i8, ptr %20, align 4
  %22 = lshr i8 %21, 1
  %23 = and i8 %22, 1
  %24 = zext i8 %23 to i32
  %25 = getelementptr inbounds nuw %class.mpz, ptr %7, i32 0, i32 1
  %26 = trunc i32 %24 to i8
  %27 = load i8, ptr %25, align 4
  %28 = and i8 %26, 1
  %29 = shl i8 %28, 1
  %30 = and i8 %27, -3
  %31 = or i8 %30, %29
  store i8 %31, ptr %25, align 4
  %32 = load i32, ptr %5, align 4, !tbaa !82
  %33 = load ptr, ptr %4, align 8, !tbaa !94
  %34 = getelementptr inbounds nuw %class.mpz, ptr %33, i32 0, i32 1
  %35 = trunc i32 %32 to i8
  %36 = load i8, ptr %34, align 4
  %37 = and i8 %35, 1
  %38 = shl i8 %37, 1
  %39 = and i8 %36, -3
  %40 = or i8 %39, %38
  store i8 %40, ptr %34, align 4
  call void @llvm.lifetime.start.p0(i64 4, ptr %6) #3
  %41 = getelementptr inbounds nuw %class.mpz, ptr %7, i32 0, i32 1
  %42 = load i8, ptr %41, align 4
  %43 = and i8 %42, 1
  %44 = zext i8 %43 to i32
  store i32 %44, ptr %6, align 4, !tbaa !82
  %45 = load ptr, ptr %4, align 8, !tbaa !94
  %46 = getelementptr inbounds nuw %class.mpz, ptr %45, i32 0, i32 1
  %47 = load i8, ptr %46, align 4
  %48 = and i8 %47, 1
  %49 = zext i8 %48 to i32
  %50 = getelementptr inbounds nuw %class.mpz, ptr %7, i32 0, i32 1
  %51 = trunc i32 %49 to i8
  %52 = load i8, ptr %50, align 4
  %53 = and i8 %51, 1
  %54 = and i8 %52, -2
  %55 = or i8 %54, %53
  store i8 %55, ptr %50, align 4
  %56 = load i32, ptr %6, align 4, !tbaa !82
  %57 = load ptr, ptr %4, align 8, !tbaa !94
  %58 = getelementptr inbounds nuw %class.mpz, ptr %57, i32 0, i32 1
  %59 = trunc i32 %56 to i8
  %60 = load i8, ptr %58, align 4
  %61 = and i8 %59, 1
  %62 = and i8 %60, -2
  %63 = or i8 %62, %61
  store i8 %63, ptr %58, align 4
  call void @llvm.lifetime.end.p0(i64 4, ptr %6) #3
  call void @llvm.lifetime.end.p0(i64 4, ptr %5) #3
  ret void
}

; Function Attrs: mustprogress nounwind uwtable
define linkonce_odr hidden void @_ZN4mpbq4swapERS_(ptr noundef nonnull align 8 dereferenceable(20) %0, ptr noundef nonnull align 8 dereferenceable(20) %1) #4 comdat align 2 {
  %3 = alloca ptr, align 8
  %4 = alloca ptr, align 8
  store ptr %0, ptr %3, align 8, !tbaa !8
  store ptr %1, ptr %4, align 8, !tbaa !8
  %5 = load ptr, ptr %3, align 8
  %6 = getelementptr inbounds nuw %class.mpbq, ptr %5, i32 0, i32 0
  %7 = load ptr, ptr %4, align 8, !tbaa !8
  %8 = getelementptr inbounds nuw %class.mpbq, ptr %7, i32 0, i32 0
  call void @_ZN3mpz4swapERS_(ptr noundef nonnull align 8 dereferenceable(16) %6, ptr noundef nonnull align 8 dereferenceable(16) %8) #3
  %9 = getelementptr inbounds nuw %class.mpbq, ptr %5, i32 0, i32 1
  %10 = load ptr, ptr %4, align 8, !tbaa !8
  %11 = getelementptr inbounds nuw %class.mpbq, ptr %10, i32 0, i32 1
  call void @_ZSt4swapIjENSt9enable_ifIXsr6__and_ISt6__not_ISt15__is_tuple_likeIT_EESt21is_move_constructibleIS3_ESt18is_move_assignableIS3_EEE5valueEvE4typeERS3_SC_(ptr noundef nonnull align 4 dereferenceable(4) %9, ptr noundef nonnull align 4 dereferenceable(4) %11) #3
  ret void
}

; Function Attrs: inlinehint mustprogress nounwind uwtable
define linkonce_odr void @_ZSt4swapIhENSt9enable_ifIXsr6__and_ISt6__not_ISt15__is_tuple_likeIT_EESt21is_move_constructibleIS3_ESt18is_move_assignableIS3_EEE5valueEvE4typeERS3_SC_(ptr noundef nonnull align 1 dereferenceable(1) %0, ptr noundef nonnull align 1 dereferenceable(1) %1) #5 comdat {
  %3 = alloca ptr, align 8
  %4 = alloca ptr, align 8
  %5 = alloca i8, align 1
  store ptr %0, ptr %3, align 8, !tbaa !10
  store ptr %1, ptr %4, align 8, !tbaa !10
  call void @llvm.lifetime.start.p0(i64 1, ptr %5) #3
  %6 = load ptr, ptr %3, align 8, !tbaa !10
  %7 = load i8, ptr %6, align 1, !tbaa !12
  store i8 %7, ptr %5, align 1, !tbaa !12
  %8 = load ptr, ptr %4, align 8, !tbaa !10
  %9 = load i8, ptr %8, align 1, !tbaa !12
  %10 = load ptr, ptr %3, align 8, !tbaa !10
  store i8 %9, ptr %10, align 1, !tbaa !12
  %11 = load i8, ptr %5, align 1, !tbaa !12
  %12 = load ptr, ptr %4, align 8, !tbaa !10
  store i8 %11, ptr %12, align 1, !tbaa !12
  call void @llvm.lifetime.end.p0(i64 1, ptr %5) #3
  ret void
}

; Function Attrs: inlinehint mustprogress nounwind uwtable
define linkonce_odr hidden void @_Z4swapR4mpbqS0_(ptr noundef nonnull align 8 dereferenceable(20) %0, ptr noundef nonnull align 8 dereferenceable(20) %1) #5 comdat {
  %3 = alloca ptr, align 8
  %4 = alloca ptr, align 8
  store ptr %0, ptr %3, align 8, !tbaa !8
  store ptr %1, ptr %4, align 8, !tbaa !8
  %5 = load ptr, ptr %3, align 8, !tbaa !8
  %6 = load ptr, ptr %4, align 8, !tbaa !8
  call void @_ZN4mpbq4swapERS_(ptr noundef nonnull align 8 dereferenceable(20) %5, ptr noundef nonnull align 8 dereferenceable(20) %6) #3
  ret void
}

; Function Attrs: mustprogress nounwind uwtable
define hidden void @_ZN11realclosure4swapERNS_11mpbq_config8intervalES2_(ptr noundef nonnull align 8 dereferenceable(52) %0, ptr noundef nonnull align 8 dereferenceable(52) %1) #4 {
  %3 = alloca ptr, align 8
  %4 = alloca ptr, align 8
  store ptr %0, ptr %3, align 8, !tbaa !3
  store ptr %1, ptr %4, align 8, !tbaa !3
  %5 = load ptr, ptr %3, align 8, !tbaa !3
  %6 = getelementptr inbounds nuw %"struct.realclosure::mpbq_config::interval", ptr %5, i32 0, i32 0
  %7 = load ptr, ptr %4, align 8, !tbaa !3
  %8 = getelementptr inbounds nuw %"struct.realclosure::mpbq_config::interval", ptr %7, i32 0, i32 0
  call void @_Z4swapR4mpbqS0_(ptr noundef nonnull align 8 dereferenceable(20) %6, ptr noundef nonnull align 8 dereferenceable(20) %8) #3
  %9 = load ptr, ptr %3, align 8, !tbaa !3
  %10 = getelementptr inbounds nuw %"struct.realclosure::mpbq_config::interval", ptr %9, i32 0, i32 1
  %11 = load ptr, ptr %4, align 8, !tbaa !3
  %12 = getelementptr inbounds nuw %"struct.realclosure::mpbq_config::interval", ptr %11, i32 0, i32 1
  call void @_Z4swapR4mpbqS0_(ptr noundef nonnull align 8 dereferenceable(20) %10, ptr noundef nonnull align 8 dereferenceable(20) %12) #3
  %13 = load ptr, ptr %3, align 8, !tbaa !3
  %14 = getelementptr inbounds nuw %"struct.realclosure::mpbq_config::interval", ptr %13, i32 0, i32 2
  %15 = load ptr, ptr %4, align 8, !tbaa !3
  %16 = getelementptr inbounds nuw %"struct.realclosure::mpbq_config::interval", ptr %15, i32 0, i32 2
  call void @_ZSt4swapIhENSt9enable_ifIXsr6__and_ISt6__not_ISt15__is_tuple_likeIT_EESt21is_move_constructibleIS3_ESt18is_move_assignableIS3_EEE5valueEvE4typeERS3_SC_(ptr noundef nonnull align 1 dereferenceable(1) %14, ptr noundef nonnull align 1 dereferenceable(1) %16) #3
  %17 = load ptr, ptr %3, align 8, !tbaa !3
  %18 = getelementptr inbounds nuw %"struct.realclosure::mpbq_config::interval", ptr %17, i32 0, i32 3
  %19 = load ptr, ptr %4, align 8, !tbaa !3
  %20 = getelementptr inbounds nuw %"struct.realclosure::mpbq_config::interval", ptr %19, i32 0, i32 3
  call void @_ZSt4swapIhENSt9enable_ifIXsr6__and_ISt6__not_ISt15__is_tuple_likeIT_EESt21is_move_constructibleIS3_ESt18is_move_assignableIS3_EEE5valueEvE4typeERS3_SC_(ptr noundef nonnull align 1 dereferenceable(1) %18, ptr noundef nonnull align 1 dereferenceable(1) %20) #3
  %21 = load ptr, ptr %3, align 8, !tbaa !3
  %22 = getelementptr inbounds nuw %"struct.realclosure::mpbq_config::interval", ptr %21, i32 0, i32 4
  %23 = load ptr, ptr %4, align 8, !tbaa !3
  %24 = getelementptr inbounds nuw %"struct.realclosure::mpbq_config::interval", ptr %23, i32 0, i32 4
  call void @_ZSt4swapIhENSt9enable_ifIXsr6__and_ISt6__not_ISt15__is_tuple_likeIT_EESt21is_move_constructibleIS3_ESt18is_move_assignableIS3_EEE5valueEvE4typeERS3_SC_(ptr noundef nonnull align 1 dereferenceable(1) %22, ptr noundef nonnull align 1 dereferenceable(1) %24) #3
  %25 = load ptr, ptr %3, align 8, !tbaa !3
  %26 = getelementptr inbounds nuw %"struct.realclosure::mpbq_config::interval", ptr %25, i32 0, i32 5
  %27 = load ptr, ptr %4, align 8, !tbaa !3
  %28 = getelementptr inbounds nuw %"struct.realclosure::mpbq_config::interval", ptr %27, i32 0, i32 5
  call void @_ZSt4swapIhENSt9enable_ifIXsr6__and_ISt6__not_ISt15__is_tuple_likeIT_EESt21is_move_constructibleIS3_ESt18is_move_assignableIS3_EEE5valueEvE4typeERS3_SC_(ptr noundef nonnull align 1 dereferenceable(1) %26, ptr noundef nonnull align 1 dereferenceable(1) %28) #3
  ret void
}