; Function Attrs: mustprogress nofree norecurse nosync nounwind willreturn memory(argmem: readwrite) uwtable
define hidden void @_ZN11realclosure4swapERNS_11mpbq_config8intervalES2_(ptr noundef nonnull align 8 captures(none) dereferenceable(52) %0, ptr noundef nonnull align 8 captures(none) dereferenceable(52) %1) local_unnamed_addr #3 {
  %3 = load i32, ptr %0, align 8, !tbaa !3
  %4 = load i32, ptr %1, align 8, !tbaa !3
  store i32 %4, ptr %0, align 8, !tbaa !3
  store i32 %3, ptr %1, align 8, !tbaa !3
  %5 = getelementptr inbounds nuw i8, ptr %0, i64 8
  %6 = getelementptr inbounds nuw i8, ptr %1, i64 8
  %7 = load ptr, ptr %5, align 8, !tbaa !7
  %8 = load ptr, ptr %6, align 8, !tbaa !7
  store ptr %8, ptr %5, align 8, !tbaa !7
  store ptr %7, ptr %6, align 8, !tbaa !7
  %9 = getelementptr inbounds nuw i8, ptr %0, i64 4
  %10 = load i8, ptr %9, align 4
  %11 = and i8 %10, 2
  %12 = getelementptr inbounds nuw i8, ptr %1, i64 4
  %13 = load i8, ptr %12, align 4
  %14 = and i8 %13, 2
  %15 = and i8 %10, -3
  %16 = or disjoint i8 %14, %15
  store i8 %16, ptr %9, align 4
  %17 = load i8, ptr %12, align 4
  %18 = and i8 %17, -3
  %19 = or disjoint i8 %18, %11
  store i8 %19, ptr %12, align 4
  %20 = load i8, ptr %9, align 4
  %21 = and i8 %20, 1
  %22 = and i8 %17, 1
  %23 = and i8 %20, -2
  %24 = or disjoint i8 %23, %22
  store i8 %24, ptr %9, align 4
  %25 = load i8, ptr %12, align 4
  %26 = and i8 %25, -2
  %27 = or disjoint i8 %26, %21
  store i8 %27, ptr %12, align 4
  %28 = getelementptr inbounds nuw i8, ptr %0, i64 16
  %29 = getelementptr inbounds nuw i8, ptr %1, i64 16
  %30 = load i32, ptr %28, align 8, !tbaa !3
  %31 = load i32, ptr %29, align 8, !tbaa !3
  store i32 %31, ptr %28, align 8, !tbaa !3
  store i32 %30, ptr %29, align 8, !tbaa !3
  %32 = getelementptr inbounds nuw i8, ptr %0, i64 24
  %33 = getelementptr inbounds nuw i8, ptr %1, i64 24
  %34 = load i32, ptr %32, align 8, !tbaa !3
  %35 = load i32, ptr %33, align 8, !tbaa !3
  store i32 %35, ptr %32, align 8, !tbaa !3
  store i32 %34, ptr %33, align 8, !tbaa !3
  %36 = getelementptr inbounds nuw i8, ptr %0, i64 32
  %37 = getelementptr inbounds nuw i8, ptr %1, i64 32
  %38 = load ptr, ptr %36, align 8, !tbaa !7
  %39 = load ptr, ptr %37, align 8, !tbaa !7
  store ptr %39, ptr %36, align 8, !tbaa !7
  store ptr %38, ptr %37, align 8, !tbaa !7
  %40 = getelementptr inbounds nuw i8, ptr %0, i64 28
  %41 = load i8, ptr %40, align 4
  %42 = and i8 %41, 2
  %43 = getelementptr inbounds nuw i8, ptr %1, i64 28
  %44 = load i8, ptr %43, align 4
  %45 = and i8 %44, 2
  %46 = and i8 %41, -3
  %47 = or disjoint i8 %45, %46
  store i8 %47, ptr %40, align 4
  %48 = load i8, ptr %43, align 4
  %49 = and i8 %48, -3
  %50 = or disjoint i8 %49, %42
  store i8 %50, ptr %43, align 4
  %51 = load i8, ptr %40, align 4
  %52 = and i8 %51, 1
  %53 = and i8 %48, 1
  %54 = and i8 %51, -2
  %55 = or disjoint i8 %54, %53
  store i8 %55, ptr %40, align 4
  %56 = load i8, ptr %43, align 4
  %57 = and i8 %56, -2
  %58 = or disjoint i8 %57, %52
  store i8 %58, ptr %43, align 4
  %59 = getelementptr inbounds nuw i8, ptr %0, i64 40
  %60 = getelementptr inbounds nuw i8, ptr %1, i64 40
  %61 = load i32, ptr %59, align 8, !tbaa !3
  %62 = load i32, ptr %60, align 8, !tbaa !3
  store i32 %62, ptr %59, align 8, !tbaa !3
  store i32 %61, ptr %60, align 8, !tbaa !3
  %63 = getelementptr inbounds nuw i8, ptr %0, i64 48
  %64 = getelementptr inbounds nuw i8, ptr %1, i64 48
  %65 = load i8, ptr %63, align 8, !tbaa !10
  %66 = load i8, ptr %64, align 8, !tbaa !10
  store i8 %66, ptr %63, align 8, !tbaa !10
  store i8 %65, ptr %64, align 8, !tbaa !10
  %67 = getelementptr inbounds nuw i8, ptr %0, i64 49
  %68 = getelementptr inbounds nuw i8, ptr %1, i64 49
  %69 = load i8, ptr %67, align 1, !tbaa !10
  %70 = load i8, ptr %68, align 1, !tbaa !10
  store i8 %70, ptr %67, align 1, !tbaa !10
  store i8 %69, ptr %68, align 1, !tbaa !10
  %71 = getelementptr inbounds nuw i8, ptr %0, i64 50
  %72 = getelementptr inbounds nuw i8, ptr %1, i64 50
  %73 = load i8, ptr %71, align 2, !tbaa !10
  %74 = load i8, ptr %72, align 2, !tbaa !10
  store i8 %74, ptr %71, align 2, !tbaa !10
  store i8 %73, ptr %72, align 2, !tbaa !10
  %75 = getelementptr inbounds nuw i8, ptr %0, i64 51
  %76 = getelementptr inbounds nuw i8, ptr %1, i64 51
  %77 = load i8, ptr %75, align 1, !tbaa !10
  %78 = load i8, ptr %76, align 1, !tbaa !10
  store i8 %78, ptr %75, align 1, !tbaa !10
  store i8 %77, ptr %76, align 1, !tbaa !10
  ret void
}